; ModuleID = '55/174.c'
source_filename = "55/174.c"
target datalayout = "e-m:e-p270:32:32-p271:32:32-p272:64:64-i64:64-f80:128-n8:16:32:64-S128"
target triple = "x86_64-pc-linux-gnu"

@__const.main.zhuan = private unnamed_addr constant [36 x i8] c"0123456789ABCDEFGHIJKLMNOPQRSTUVWXYZ", align 16
@.str = private unnamed_addr constant [9 x i8] c"%d %s %d\00", align 1
@.str.1 = private unnamed_addr constant [3 x i8] c"0\0A\00", align 1
@.str.2 = private unnamed_addr constant [3 x i8] c"%c\00", align 1

; Function Attrs: noinline nounwind uwtable
define dso_local i32 @main() #0 {
  %1 = alloca i32, align 4
  %2 = alloca [36 x i8], align 16
  %3 = alloca i32, align 4
  %4 = alloca i32, align 4
  %5 = alloca [64 x i8], align 16
  %6 = alloca [64 x i8], align 16
  %7 = alloca i32, align 4
  %8 = alloca i32, align 4
  %9 = alloca i64, align 8
  %10 = alloca i32, align 4
  %11 = alloca [64 x i32], align 16
  store i32 0, i32* %1, align 4
  %12 = bitcast [36 x i8]* %2 to i8*
  call void @llvm.memcpy.p0i8.p0i8.i64(i8* align 16 %12, i8* align 16 getelementptr inbounds ([36 x i8], [36 x i8]* @__const.main.zhuan, i32 0, i32 0), i64 36, i1 false)
  store i64 0, i64* %9, align 8
  store i32 0, i32* %10, align 4
  %13 = getelementptr inbounds [64 x i8], [64 x i8]* %5, i64 0, i64 0
  %14 = call i32 (i8*, ...) @__isoc99_scanf(i8* getelementptr inbounds ([9 x i8], [9 x i8]* @.str, i64 0, i64 0), i32* %3, i8* %13, i32* %4)
  store i32 0, i32* %7, align 4
  br label %15

15:                                               ; preds = %96, %0
  %16 = load i32, i32* %7, align 4
  %17 = sext i32 %16 to i64
  %18 = getelementptr inbounds [64 x i8], [64 x i8]* %5, i64 0, i64 %17
  %19 = load i8, i8* %18, align 1
  %20 = icmp ne i8 %19, 0
  br i1 %20, label %21, label %99

21:                                               ; preds = %15
  %22 = load i32, i32* %7, align 4
  %23 = sext i32 %22 to i64
  %24 = getelementptr inbounds [64 x i8], [64 x i8]* %5, i64 0, i64 %23
  %25 = load i8, i8* %24, align 1
  %26 = sext i8 %25 to i32
  %27 = icmp sge i32 %26, 48
  br i1 %27, label %28, label %42

28:                                               ; preds = %21
  %29 = load i32, i32* %7, align 4
  %30 = sext i32 %29 to i64
  %31 = getelementptr inbounds [64 x i8], [64 x i8]* %5, i64 0, i64 %30
  %32 = load i8, i8* %31, align 1
  %33 = sext i8 %32 to i32
  %34 = icmp sle i32 %33, 57
  br i1 %34, label %35, label %42

35:                                               ; preds = %28
  %36 = load i32, i32* %7, align 4
  %37 = sext i32 %36 to i64
  %38 = getelementptr inbounds [64 x i8], [64 x i8]* %5, i64 0, i64 %37
  %39 = load i8, i8* %38, align 1
  %40 = sext i8 %39 to i32
  %41 = sub nsw i32 %40, 48
  store i32 %41, i32* %8, align 4
  br label %88

42:                                               ; preds = %28, %21
  %43 = load i32, i32* %7, align 4
  %44 = sext i32 %43 to i64
  %45 = getelementptr inbounds [64 x i8], [64 x i8]* %5, i64 0, i64 %44
  %46 = load i8, i8* %45, align 1
  %47 = sext i8 %46 to i32
  %48 = icmp sge i32 %47, 65
  br i1 %48, label %49, label %64

49:                                               ; preds = %42
  %50 = load i32, i32* %7, align 4
  %51 = sext i32 %50 to i64
  %52 = getelementptr inbounds [64 x i8], [64 x i8]* %5, i64 0, i64 %51
  %53 = load i8, i8* %52, align 1
  %54 = sext i8 %53 to i32
  %55 = icmp sle i32 %54, 90
  br i1 %55, label %56, label %64

56:                                               ; preds = %49
  %57 = load i32, i32* %7, align 4
  %58 = sext i32 %57 to i64
  %59 = getelementptr inbounds [64 x i8], [64 x i8]* %5, i64 0, i64 %58
  %60 = load i8, i8* %59, align 1
  %61 = sext i8 %60 to i32
  %62 = sub nsw i32 %61, 65
  %63 = add nsw i32 %62, 10
  store i32 %63, i32* %8, align 4
  br label %87

64:                                               ; preds = %49, %42
  %65 = load i32, i32* %7, align 4
  %66 = sext i32 %65 to i64
  %67 = getelementptr inbounds [64 x i8], [64 x i8]* %5, i64 0, i64 %66
  %68 = load i8, i8* %67, align 1
  %69 = sext i8 %68 to i32
  %70 = icmp sge i32 %69, 97
  br i1 %70, label %71, label %86

71:                                               ; preds = %64
  %72 = load i32, i32* %7, align 4
  %73 = sext i32 %72 to i64
  %74 = getelementptr inbounds [64 x i8], [64 x i8]* %5, i64 0, i64 %73
  %75 = load i8, i8* %74, align 1
  %76 = sext i8 %75 to i32
  %77 = icmp sle i32 %76, 122
  br i1 %77, label %78, label %86

78:                                               ; preds = %71
  %79 = load i32, i32* %7, align 4
  %80 = sext i32 %79 to i64
  %81 = getelementptr inbounds [64 x i8], [64 x i8]* %5, i64 0, i64 %80
  %82 = load i8, i8* %81, align 1
  %83 = sext i8 %82 to i32
  %84 = sub nsw i32 %83, 97
  %85 = add nsw i32 %84, 10
  store i32 %85, i32* %8, align 4
  br label %86

86:                                               ; preds = %78, %71, %64
  br label %87

87:                                               ; preds = %86, %56
  br label %88

88:                                               ; preds = %87, %35
  %89 = load i64, i64* %9, align 8
  %90 = load i32, i32* %3, align 4
  %91 = sext i32 %90 to i64
  %92 = mul nsw i64 %89, %91
  %93 = load i32, i32* %8, align 4
  %94 = sext i32 %93 to i64
  %95 = add nsw i64 %92, %94
  store i64 %95, i64* %9, align 8
  br label %96

96:                                               ; preds = %88
  %97 = load i32, i32* %7, align 4
  %98 = add nsw i32 %97, 1
  store i32 %98, i32* %7, align 4
  br label %15

99:                                               ; preds = %15
  %100 = load i64, i64* %9, align 8
  %101 = icmp eq i64 %100, 0
  br i1 %101, label %102, label %104

102:                                              ; preds = %99
  %103 = call i32 (i8*, ...) @printf(i8* getelementptr inbounds ([3 x i8], [3 x i8]* @.str.1, i64 0, i64 0))
  br label %104

104:                                              ; preds = %102, %99
  %105 = load i64, i64* %9, align 8
  %106 = icmp ne i64 %105, 0
  br i1 %106, label %107, label %164

107:                                              ; preds = %104
  br label %108

108:                                              ; preds = %111, %107
  %109 = load i64, i64* %9, align 8
  %110 = icmp sgt i64 %109, 0
  br i1 %110, label %111, label %126

111:                                              ; preds = %108
  %112 = load i64, i64* %9, align 8
  %113 = load i32, i32* %4, align 4
  %114 = sext i32 %113 to i64
  %115 = srem i64 %112, %114
  %116 = trunc i64 %115 to i32
  %117 = load i32, i32* %10, align 4
  %118 = sext i32 %117 to i64
  %119 = getelementptr inbounds [64 x i32], [64 x i32]* %11, i64 0, i64 %118
  store i32 %116, i32* %119, align 4
  %120 = load i64, i64* %9, align 8
  %121 = load i32, i32* %4, align 4
  %122 = sext i32 %121 to i64
  %123 = sdiv i64 %120, %122
  store i64 %123, i64* %9, align 8
  %124 = load i32, i32* %10, align 4
  %125 = add nsw i32 %124, 1
  store i32 %125, i32* %10, align 4
  br label %108

126:                                              ; preds = %108
  store i32 0, i32* %7, align 4
  br label %127

127:                                              ; preds = %145, %126
  %128 = load i32, i32* %7, align 4
  %129 = load i32, i32* %10, align 4
  %130 = icmp slt i32 %128, %129
  br i1 %130, label %131, label %148

131:                                              ; preds = %127
  %132 = load i32, i32* %7, align 4
  %133 = sext i32 %132 to i64
  %134 = getelementptr inbounds [64 x i32], [64 x i32]* %11, i64 0, i64 %133
  %135 = load i32, i32* %134, align 4
  %136 = sext i32 %135 to i64
  %137 = getelementptr inbounds [36 x i8], [36 x i8]* %2, i64 0, i64 %136
  %138 = load i8, i8* %137, align 1
  %139 = load i32, i32* %10, align 4
  %140 = sub nsw i32 %139, 1
  %141 = load i32, i32* %7, align 4
  %142 = sub nsw i32 %140, %141
  %143 = sext i32 %142 to i64
  %144 = getelementptr inbounds [64 x i8], [64 x i8]* %6, i64 0, i64 %143
  store i8 %138, i8* %144, align 1
  br label %145

145:                                              ; preds = %131
  %146 = load i32, i32* %7, align 4
  %147 = add nsw i32 %146, 1
  store i32 %147, i32* %7, align 4
  br label %127

148:                                              ; preds = %127
  store i32 0, i32* %7, align 4
  br label %149

149:                                              ; preds = %160, %148
  %150 = load i32, i32* %7, align 4
  %151 = load i32, i32* %10, align 4
  %152 = icmp slt i32 %150, %151
  br i1 %152, label %153, label %163

153:                                              ; preds = %149
  %154 = load i32, i32* %7, align 4
  %155 = sext i32 %154 to i64
  %156 = getelementptr inbounds [64 x i8], [64 x i8]* %6, i64 0, i64 %155
  %157 = load i8, i8* %156, align 1
  %158 = sext i8 %157 to i32
  %159 = call i32 (i8*, ...) @printf(i8* getelementptr inbounds ([3 x i8], [3 x i8]* @.str.2, i64 0, i64 0), i32 %158)
  br label %160

160:                                              ; preds = %153
  %161 = load i32, i32* %7, align 4
  %162 = add nsw i32 %161, 1
  store i32 %162, i32* %7, align 4
  br label %149

163:                                              ; preds = %149
  br label %164

164:                                              ; preds = %163, %104
  ret i32 0
}

; Function Attrs: argmemonly nounwind willreturn
declare void @llvm.memcpy.p0i8.p0i8.i64(i8* noalias nocapture writeonly, i8* noalias nocapture readonly, i64, i1 immarg) #1

declare dso_local i32 @__isoc99_scanf(i8*, ...) #2

declare dso_local i32 @printf(i8*, ...) #2


!llvm.module.flags = !{!0}
!llvm.ident = !{!1}

!0 = !{i32 1, !"wchar_size", i32 4}
!1 = !{!"clang version 10.0.0-4ubuntu1 "}
